; Function Attrs: mustprogress uwtable
define noundef nonnull align 8 dereferenceable(24) ptr @_ZN5boost9unit_test9decorator11collector_tmlERKNS1_4baseE(ptr noundef nonnull readonly returned align 8 dereferenceable(24) %0, ptr noundef nonnull align 8 dereferenceable(8) %1) local_unnamed_addr #0 align 2 personality ptr @__gxx_personality_v0 {
  %3 = alloca %"class.boost::shared_ptr", align 8
  %4 = load ptr, ptr %0, align 8, !tbaa !10
  call void @llvm.lifetime.start.p0(i64 16, ptr nonnull %3) #25
  %5 = load ptr, ptr %1, align 8, !tbaa !11
  %6 = getelementptr inbounds i8, ptr %5, i64 16
  %7 = load ptr, ptr %6, align 8
  call void %7(ptr dead_on_unwind nonnull writable sret(%"class.boost::shared_ptr") align 8 %3, ptr noundef nonnull align 8 dereferenceable(8) %1)
  %8 = getelementptr inbounds nuw i8, ptr %4, i64 8
  %9 = load ptr, ptr %8, align 8, !tbaa !10
  %10 = getelementptr inbounds nuw i8, ptr %4, i64 16
  %11 = load ptr, ptr %10, align 8, !tbaa !13
  %.not.i.i = icmp eq ptr %9, %11
  br i1 %.not.i.i, label %17, label %_ZNSt6vectorIN5boost10shared_ptrINS0_9unit_test9decorator4baseEEESaIS5_EE9push_backEOS5_.exit.thread

_ZNSt6vectorIN5boost10shared_ptrINS0_9unit_test9decorator4baseEEESaIS5_EE9push_backEOS5_.exit.thread: ; preds = %2
  %12 = load ptr, ptr %3, align 8, !tbaa !15
  store ptr %12, ptr %9, align 8, !tbaa !15
  %13 = getelementptr inbounds nuw i8, ptr %9, i64 8
  %14 = getelementptr inbounds nuw i8, ptr %3, i64 8
  %15 = load ptr, ptr %14, align 8, !tbaa !18
  store ptr %15, ptr %13, align 8, !tbaa !18
  %16 = getelementptr inbounds nuw i8, ptr %9, i64 16
  store ptr %16, ptr %8, align 8, !tbaa !19
  br label %_ZN5boost10shared_ptrINS_9unit_test9decorator4baseEED2Ev.exit

17:                                               ; preds = %2
  invoke void @_ZNSt6vectorIN5boost10shared_ptrINS0_9unit_test9decorator4baseEEESaIS5_EE17_M_realloc_insertIJS5_EEEvN9__gnu_cxx17__normal_iteratorIPS5_S7_EEDpOT_(ptr noundef nonnull align 8 dereferenceable(24) %4, ptr %9, ptr noundef nonnull align 8 dereferenceable(16) %3)
          to label %_ZNSt6vectorIN5boost10shared_ptrINS0_9unit_test9decorator4baseEEESaIS5_EE9push_backEOS5_.exit unwind label %36

_ZNSt6vectorIN5boost10shared_ptrINS0_9unit_test9decorator4baseEEESaIS5_EE9push_backEOS5_.exit: ; preds = %17
  %.phi.trans.insert = getelementptr inbounds nuw i8, ptr %3, i64 8
  %.pre = load ptr, ptr %.phi.trans.insert, align 8, !tbaa !18
  %.not.i.i3 = icmp eq ptr %.pre, null
  br i1 %.not.i.i3, label %_ZN5boost10shared_ptrINS_9unit_test9decorator4baseEED2Ev.exit, label %18

18:                                               ; preds = %_ZNSt6vectorIN5boost10shared_ptrINS0_9unit_test9decorator4baseEEESaIS5_EE9push_backEOS5_.exit
  %19 = getelementptr inbounds nuw i8, ptr %.pre, i64 8
  %20 = atomicrmw sub ptr %19, i32 1 acq_rel, align 4
  %21 = icmp eq i32 %20, 1
  br i1 %21, label %22, label %_ZN5boost10shared_ptrINS_9unit_test9decorator4baseEED2Ev.exit

22:                                               ; preds = %18
  %23 = load ptr, ptr %.pre, align 8, !tbaa !11
  %24 = getelementptr inbounds i8, ptr %23, i64 16
  %25 = load ptr, ptr %24, align 8
  invoke void %25(ptr noundef nonnull align 8 dereferenceable(16) %.pre)
          to label %.noexc.i.i unwind label %33

.noexc.i.i:                                       ; preds = %22
  %26 = getelementptr inbounds nuw i8, ptr %.pre, i64 12
  %27 = atomicrmw sub ptr %26, i32 1 acq_rel, align 4
  %28 = icmp eq i32 %27, 1
  br i1 %28, label %29, label %_ZN5boost10shared_ptrINS_9unit_test9decorator4baseEED2Ev.exit

29:                                               ; preds = %.noexc.i.i
  %30 = load ptr, ptr %.pre, align 8, !tbaa !11
  %31 = getelementptr inbounds i8, ptr %30, i64 24
  %32 = load ptr, ptr %31, align 8
  invoke void %32(ptr noundef nonnull align 8 dereferenceable(16) %.pre)
          to label %_ZN5boost10shared_ptrINS_9unit_test9decorator4baseEED2Ev.exit unwind label %33

33:                                               ; preds = %29, %22
  %34 = landingpad { ptr, i32 }
          catch ptr null
  %35 = extractvalue { ptr, i32 } %34, 0
  call void @__clang_call_terminate(ptr %35) #27
  unreachable

_ZN5boost10shared_ptrINS_9unit_test9decorator4baseEED2Ev.exit: ; preds = %_ZNSt6vectorIN5boost10shared_ptrINS0_9unit_test9decorator4baseEEESaIS5_EE9push_backEOS5_.exit.thread, %_ZNSt6vectorIN5boost10shared_ptrINS0_9unit_test9decorator4baseEEESaIS5_EE9push_backEOS5_.exit, %18, %.noexc.i.i, %29
  call void @llvm.lifetime.end.p0(i64 16, ptr nonnull %3) #25
  ret ptr %0

36:                                               ; preds = %17
  %37 = landingpad { ptr, i32 }
          cleanup
  call void @_ZN5boost10shared_ptrINS_9unit_test9decorator4baseEED2Ev(ptr noundef nonnull align 8 dereferenceable(16) %3) #25
  call void @llvm.lifetime.end.p0(i64 16, ptr nonnull %3) #25
  resume { ptr, i32 } %37
}